(dp1
S'output'
p2
S"<type 'exceptions.ValueError'> need more than 1 value to unpack"
p3
sS'layer'
p4
S'C:\\catalogo_presationi\\applications\\Catalogo_Prestazioni\\controllers/default.py'
p5
sS'code'
p6
S'# -*- coding: utf-8 -*-\n# this file is released under public domain and you can use without limitations\n\n#########################################################################\n## This is a sample controller\n## - index is the default action of any application\n## - user is required for authentication and authorization\n## - download is for downloading files uploaded in the db (does streaming)\n#########################################################################\n\ndef index():\n    form = SQLFORM.factory(\n        Field(\'Cerca_prestazione\',\n              requires=(IS_NOT_EMPTY(),\n                        IS_LENGTH(minsize=3),\n                        IS_SLUG(check=False, error_message=\'non deve contenere spazi o caratteri particolari\'))),\n        submit_button=\'cerca prestazione\'\n    )\n    if form.process().accepted:\n        redirect(URL(\'default\', \'analisi_filtrate\', vars=form.vars))\n\n    return dict(message=T(\'Search test\'), content=(\'Pagina di ricerca prestazioni\'),\n                title=(\'Catalogo delle prestazioni\'), form=form)\n\n\ndef analisi_filtrate():\n    # HIDE DB FIELDS\n    db.esami.id.readable = False\n    # QUERY THE DB\n    query = (db.esami.analita.contains(request.vars.Cerca_prestazione) | db.esami.search_keywords.contains(\n        request.vars.Cerca_prestazione))\n\n    campi = [db.materiali.sigla, db.esami.id, db.esami.analita, db.materiali.materiale, db.esami.obsoleto]\n    intestazione = {\'esami.id\': \'ID\',\n                    \'esami.analita\': \'Descrizione\',\n                    \'esami.obsoleto\': \'Non pi\xc3\xb9 eseguito\',\n                    \'materiali.materiale\': \'Materiale\'\n                    }\n    # SORT ORDER\n    ordinamento = [db.esami.analita]\n    # lunghezza campi\n    lunghezza = {\'esami.analita\': 60, \'esami.obsoleto\': 5}\n    # LINK OTHER TABLE\n    left = db.esami.on(db.esami.id_materiali == db.materiali.id)\n    # DISPLAY ADDITIONAL LINKS\n    # links=[lambda row: A(\'Visualiza\',_href=URL(\'default\',\'scheda_esami\',args=[row(\'esami.id\')]),_class=\'btn btn-info\')]\n    links = [\n        lambda row: A(T(\'Open\'), _href=URL(\'default\', \'scheda_esami\', args=[row(\'esami.id\')]), _class=\'btn btn-info\')]\n    # BULD THE GRID\n    grid = SQLFORM.grid(query=query, left=left, fields=campi, headers=intestazione,\n                        orderby=ordinamento, links=links,\n                        create=False, deletable=False,\n                        editable=False, details=False, paginate=20,\n                        maxtextlength=lunghezza, csv=False,\n                        links_placement=\'left\'\n                        , buttons_placement=\'both\',\n                        searchable=False\n                        )\n    return dict(lista=grid)\n\n\ndef view_container():\n    # display container info  for external user\n    id_contenitore = request.args(0)\n    cont = db.contenitori[id_contenitore]\n    return dict(cont=cont)\n\ndef adv_search():\n    # grid for advanced search\n    links = [\n        lambda row: A(T(\'Open\'), _href=URL(\'default\', \'scheda_esami\', args=[row(\'esami.id\')]), _class=\'btn btn-info\')]\n    grid = SQLFORM.smartgrid(db.esami,\n                             searchable=dict(parent=True, child=True),\n                             #create=dict(parent=False, child=False),\n                             #deletable=dict(parent=False, child=False),\n                             #editable=dict(parent=False, child=False),\n                             # details=dict(parent=False, child=False),\n                             details=False,\n                             create=False,\n                             deletable=False,\n                             editable=False,\n                             paginate=50,\n                             fields=(db.esami.id_materiali, db.esami.analita, db.esami.id_contenitore,\n                                     db.esami.id_unitaoperativa, db.esami.obsoleto),\n                             maxtextlengths={\'esami.id_materiali\': 8, \'esami.analita\': 50, \'esami.id_contenitore\': 60},\n                             links=links\n\n                             )\n    return dict(grid=grid)\n\n\ndef scheda_esami():\n    id_esame = request.args(0)\n    anal = db.esami[id_esame]\n    mat = db.materiali[anal.id_materiali]\n    met = db.metodi[anal.id_metodo]\n    sett = db.settori[anal.id_settore]\n    cont = db.contenitori[anal.id_contenitore]\n    uo = db.unitaoperativa[anal.id_unitaoperativa]\n    return dict(anal=anal, mat=mat, met=met, sett=sett, cont=cont, uo=uo)\n\ndef scheda_esami_print():\n    id_esame = request.args(0)\n    anal = db.esami[id_esame]\n    mat = db.materiali[anal.id_materiali]\n    met = db.metodi[anal.id_metodo]\n    sett = db.settori[anal.id_settore]\n    cont = db.contenitori[anal.id_contenitore]\n    uo = db.unitaoperativa[anal.id_unitaoperativa]\n    return dict(anal=anal, mat=mat, met=met, sett=sett, cont=cont, uo=uo)\n\n\n\n\ndef license():\n    return locals()\n\n\ndef user():\n    """\n    exposes:\n    http://..../[app]/default/user/login\n    http://..../[app]/default/user/logout\n    http://..../[app]/default/user/register\n    http://..../[app]/default/user/profile\n    http://..../[app]/default/user/retrieve_password\n    http://..../[app]/default/user/change_password\n    http://..../[app]/default/user/manage_users (requires membership in\n    use @auth.requires_login()\n        @auth.requires_membership(\'group name\')\n        @auth.requires_permission(\'read\',\'table name\',record_id)\n    to decorate functions that need access control\n    """\n    return dict(form=auth())\n\n\n@cache.action()\ndef download():\n    """\n    allows downloading of uploaded files\n    http://..../[app]/default/download/[filename]\n    """\n    return response.download(request, db)\n\ndef fast_download():\n   # very basic security (only allow fast_download on your_table.upload_field):\n   if not request.args(0).startswith("yourtable.upload_field"):\n       return download()\n   # remove/add headers that prevent/favors client-side caching\n   del response.headers[\'Cache-Control\']\n   del response.headers[\'Pragma\']\n   del response.headers[\'Expires\']\n   filename = os.path.join(request.folder,\'uploads\',request.args(0))\n   # send last modified date/time so client browser can enable client-side caching\n   response.headers[\'Last-Modified\'] = time.strftime("%a, %d %b %Y %H:%M:%S +0000", time.localtime(os.path.getmtime(filename)))\n   return response.stream(open(filename,\'rb\'))\n\n\ndef call():\n    """\n    exposes services. for example:\n    http://..../[app]/default/call/jsonrpc\n    decorate with @services.jsonrpc the functions to expose\n    supports xml, json, xmlrpc, jsonrpc, amfrpc, rss, csv\n    """\n    return service()\n\n\ndef info():\n    id = auth.user\n    gr = auth.groups()  # [:1]\n    uo = auth.user.id_unitaoperativa\n    return locals()\n\nresponse._vars=response._caller(scheda_esami)\n'
p7
sS'snapshot'
p8
(dp9
S'exception'
p10
(dp11
S'__hash__'
p12
S"<method-wrapper '__hash__' of exceptions.ValueError object>"
p13
sS'__setattr__'
p14
S"<method-wrapper '__setattr__' of exceptions.ValueError object>"
p15
sS'__reduce_ex__'
p16
S'<built-in method __reduce_ex__ of exceptions.ValueError object>'
p17
sS'__getslice__'
p18
S"<method-wrapper '__getslice__' of exceptions.ValueError object>"
p19
sS'__getitem__'
p20
S"<method-wrapper '__getitem__' of exceptions.ValueError object>"
p21
sS'__setstate__'
p22
S'<built-in method __setstate__ of exceptions.ValueError object>'
p23
sS'__reduce__'
p24
S'<built-in method __reduce__ of exceptions.ValueError object>'
p25
sS'__str__'
p26
S"<method-wrapper '__str__' of exceptions.ValueError object>"
p27
sS'__format__'
p28
S'<built-in method __format__ of exceptions.ValueError object>'
p29
sS'__getattribute__'
p30
S"<method-wrapper '__getattribute__' of exceptions.ValueError object>"
p31
sS'__class__'
p32
S"<type 'exceptions.ValueError'>"
p33
sS'__unicode__'
p34
S'<built-in method __unicode__ of exceptions.ValueError object>'
p35
sS'__delattr__'
p36
S"<method-wrapper '__delattr__' of exceptions.ValueError object>"
p37
sS'__subclasshook__'
p38
S'<built-in method __subclasshook__ of type object>'
p39
sS'__repr__'
p40
S"<method-wrapper '__repr__' of exceptions.ValueError object>"
p41
sS'args'
p42
S"('need more than 1 value to unpack',)"
p43
sS'__dict__'
p44
S'{}'
p45
sS'__sizeof__'
p46
S'<built-in method __sizeof__ of exceptions.ValueError object>'
p47
sS'__doc__'
p48
S"'Inappropriate argument value (of correct type).'"
p49
sS'__init__'
p50
S"<method-wrapper '__init__' of exceptions.ValueError object>"
p51
sS'__new__'
p52
S'<built-in method __new__ of type object>'
p53
ssS'evalue'
p54
S'need more than 1 value to unpack'
p55
sS'request'
p56
cgluon.html
XML_unpickle
p57
(S's\xd9\\\x00\x00<div><table><tr><td style="font-weight:bold;vertical-align:top;">ajax</td><td style="vertical-align:top;">:</td><td><div>False</div></td></tr><tr><td style="font-weight:bold;vertical-align:top;">application</td><td style="vertical-align:top;">:</td><td><div>Catalogo_Prestazioni</div></td></tr><tr><td style="font-weight:bold;vertical-align:top;">args</td><td style="vertical-align:top;">:</td><td><div><table><tr><td><div>19</div></td></tr></table></div></td></tr><tr><td style="font-weight:bold;vertical-align:top;">cid</td><td style="vertical-align:top;">:</td><td><div>None</div></td></tr><tr><td style="font-weight:bold;vertical-align:top;">client</td><td style="vertical-align:top;">:</td><td><div>127.0.0.1</div></td></tr><tr><td style="font-weight:bold;vertical-align:top;">controller</td><td style="vertical-align:top;">:</td><td><div>default</div></td></tr><tr><td style="font-weight:bold;vertical-align:top;">cookies</td><td style="vertical-align:top;">:</td><td><div><table><tr><td style="font-weight:bold;vertical-align:top;">session_id_admin</td><td style="vertical-align:top;">:</td><td><div>127.0.0.1-a046b652-99fe-48bb-9255-793d5fe104ba<table><tr><td style="font-weight:bold;vertical-align:top;">comment</td><td style="vertical-align:top;">:</td><td><div></div></td></tr><tr><td style="font-weight:bold;vertical-align:top;">domain</td><td style="vertical-align:top;">:</td><td><div></div></td></tr><tr><td style="font-weight:bold;vertical-align:top;">expires</td><td style="vertical-align:top;">:</td><td><div></div></td></tr><tr><td style="font-weight:bold;vertical-align:top;">httponly</td><td style="vertical-align:top;">:</td><td><div></div></td></tr><tr><td style="font-weight:bold;vertical-align:top;">max-age</td><td style="vertical-align:top;">:</td><td><div></div></td></tr><tr><td style="font-weight:bold;vertical-align:top;">path</td><td style="vertical-align:top;">:</td><td><div></div></td></tr><tr><td style="font-weight:bold;vertical-align:top;">secure</td><td style="vertical-align:top;">:</td><td><div></div></td></tr><tr><td style="font-weight:bold;vertical-align:top;">version</td><td style="vertical-align:top;">:</td><td><div></div></td></tr></table></div></td></tr><tr><td style="font-weight:bold;vertical-align:top;">session_id_catalogo_prestazioni</td><td style="vertical-align:top;">:</td><td><div>127.0.0.1-f97a2898-a8f6-4556-aade-19e2de7fc894<table><tr><td style="font-weight:bold;vertical-align:top;">comment</td><td style="vertical-align:top;">:</td><td><div></div></td></tr><tr><td style="font-weight:bold;vertical-align:top;">domain</td><td style="vertical-align:top;">:</td><td><div></div></td></tr><tr><td style="font-weight:bold;vertical-align:top;">expires</td><td style="vertical-align:top;">:</td><td><div></div></td></tr><tr><td style="font-weight:bold;vertical-align:top;">httponly</td><td style="vertical-align:top;">:</td><td><div></div></td></tr><tr><td style="font-weight:bold;vertical-align:top;">max-age</td><td style="vertical-align:top;">:</td><td><div></div></td></tr><tr><td style="font-weight:bold;vertical-align:top;">path</td><td style="vertical-align:top;">:</td><td><div></div></td></tr><tr><td style="font-weight:bold;vertical-align:top;">secure</td><td style="vertical-align:top;">:</td><td><div></div></td></tr><tr><td style="font-weight:bold;vertical-align:top;">version</td><td style="vertical-align:top;">:</td><td><div></div></td></tr></table></div></td></tr><tr><td style="font-weight:bold;vertical-align:top;">session_id_welcome</td><td style="vertical-align:top;">:</td><td><div>127.0.0.1-71302cb8-d9ee-49fa-87c4-3610dab52268<table><tr><td style="font-weight:bold;vertical-align:top;">comment</td><td style="vertical-align:top;">:</td><td><div></div></td></tr><tr><td style="font-weight:bold;vertical-align:top;">domain</td><td style="vertical-align:top;">:</td><td><div></div></td></tr><tr><td style="font-weight:bold;vertical-align:top;">expires</td><td style="vertical-align:top;">:</td><td><div></div></td></tr><tr><td style="font-weight:bold;vertical-align:top;">httponly</td><td style="vertical-align:top;">:</td><td><div></div></td></tr><tr><td style="font-weight:bold;vertical-align:top;">max-age</td><td style="vertical-align:top;">:</td><td><div></div></td></tr><tr><td style="font-weight:bold;vertical-align:top;">path</td><td style="vertical-align:top;">:</td><td><div></div></td></tr><tr><td style="font-weight:bold;vertical-align:top;">secure</td><td style="vertical-align:top;">:</td><td><div></div></td></tr><tr><td style="font-weight:bold;vertical-align:top;">version</td><td style="vertical-align:top;">:</td><td><div></div></td></tr></table></div></td></tr></table></div></td></tr><tr><td style="font-weight:bold;vertical-align:top;">env</td><td style="vertical-align:top;">:</td><td><div><table><tr><td style="font-weight:bold;vertical-align:top;">HTTP_ACCEPT</td><td style="vertical-align:top;">:</td><td><div>text/html,application/xhtml+xml,application/xml;q=0.9,image/webp,*/*;q=0.8</div></td></tr><tr><td style="font-weight:bold;vertical-align:top;">HTTP_ACCEPT_ENCODING</td><td style="vertical-align:top;">:</td><td><div>gzip, deflate, sdch</div></td></tr><tr><td style="font-weight:bold;vertical-align:top;">HTTP_ACCEPT_LANGUAGE</td><td style="vertical-align:top;">:</td><td><div>it-IT,it;q=0.8,en-US;q=0.6,en;q=0.4</div></td></tr><tr><td style="font-weight:bold;vertical-align:top;">HTTP_CONNECTION</td><td style="vertical-align:top;">:</td><td><div>keep-alive</div></td></tr><tr><td style="font-weight:bold;vertical-align:top;">HTTP_COOKIE</td><td style="vertical-align:top;">:</td><td><div>session_id_welcome=127.0.0.1-71302cb8-d9ee-49fa-87c4-3610dab52268; session_id_admin=127.0.0.1-a046b652-99fe-48bb-9255-793d5fe104ba; session_id_catalogo_prestazioni=127.0.0.1-f97a2898-a8f6-4556-aade-19e2de7fc894</div></td></tr><tr><td style="font-weight:bold;vertical-align:top;">HTTP_HOST</td><td style="vertical-align:top;">:</td><td><div>127.0.0.1:5000</div></td></tr><tr><td style="font-weight:bold;vertical-align:top;">HTTP_REFERER</td><td style="vertical-align:top;">:</td><td><div>http://127.0.0.1:5000/Catalogo_Prestazioni/default/analisi_filtrate?Cerca_prestazione=glice</div></td></tr><tr><td style="font-weight:bold;vertical-align:top;">HTTP_UPGRADE_INSECURE_REQUESTS</td><td style="vertical-align:top;">:</td><td><div>1</div></td></tr><tr><td style="font-weight:bold;vertical-align:top;">HTTP_USER_AGENT</td><td style="vertical-align:top;">:</td><td><div>Mozilla/5.0 (Windows NT 6.1) AppleWebKit/537.36 (KHTML, like Gecko) Chrome/52.0.2743.116 Safari/537.36</div></td></tr><tr><td style="font-weight:bold;vertical-align:top;">PATH_INFO</td><td style="vertical-align:top;">:</td><td><div>/Catalogo_Prestazioni/default/scheda_esami/19</div></td></tr><tr><td style="font-weight:bold;vertical-align:top;">QUERY_STRING</td><td style="vertical-align:top;">:</td><td><div></div></td></tr><tr><td style="font-weight:bold;vertical-align:top;">REMOTE_ADDR</td><td style="vertical-align:top;">:</td><td><div>127.0.0.1</div></td></tr><tr><td style="font-weight:bold;vertical-align:top;">REMOTE_PORT</td><td style="vertical-align:top;">:</td><td><div>50459</div></td></tr><tr><td style="font-weight:bold;vertical-align:top;">REQUEST_METHOD</td><td style="vertical-align:top;">:</td><td><div>GET</div></td></tr><tr><td style="font-weight:bold;vertical-align:top;">SCRIPT_NAME</td><td style="vertical-align:top;">:</td><td><div></div></td></tr><tr><td style="font-weight:bold;vertical-align:top;">SERVER_NAME</td><td style="vertical-align:top;">:</td><td><div>D002338</div></td></tr><tr><td style="font-weight:bold;vertical-align:top;">SERVER_PORT</td><td style="vertical-align:top;">:</td><td><div>5000</div></td></tr><tr><td style="font-weight:bold;vertical-align:top;">SERVER_PROTOCOL</td><td style="vertical-align:top;">:</td><td><div>HTTP/1.1</div></td></tr><tr><td style="font-weight:bold;vertical-align:top;">SERVER_SOFTWARE</td><td style="vertical-align:top;">:</td><td><div>Rocket 1.2.6</div></td></tr><tr><td style="font-weight:bold;vertical-align:top;">app_folders</td><td style="vertical-align:top;">:</td><td><div>set([&#x27;C:\\\\catalogo_presationi\\\\applications\\\\admin\\\\&#x27;, &#x27;C:\\\\catalogo_presationi\\\\applications\\\\Catalogo_Prestazioni\\\\&#x27;, &#x27;C:\\\\catalogo_presationi\\\\applications\\\\welcome\\\\&#x27;])</div></td></tr><tr><td style="font-weight:bold;vertical-align:top;">applications_parent</td><td style="vertical-align:top;">:</td><td><div>C:\\catalogo_presationi</div></td></tr><tr><td style="font-weight:bold;vertical-align:top;">cmd_args</td><td style="vertical-align:top;">:</td><td><div><table></table></div></td></tr><tr><td style="font-weight:bold;vertical-align:top;">cmd_options</td><td style="vertical-align:top;">:</td><td><div>&lt;Values at 0x2695170: {&#x27;verbose&#x27;: False, &#x27;ip&#x27;: &#x27;127.0.0.1&#x27;, &#x27;debuglevel&#x27;: 30, &#x27;with_scheduler&#x27;: False, &#x27;shutdown_timeout&#x27;: 5, &#x27;taskbar&#x27;: False, &#x27;with_coverage&#x27;: False, &#x27;pid_filename&#x27;: &#x27;httpserver.pid&#x27;, &#x27;maxthreads&#x27;: None, &#x27;softcron&#x27;: False, &#x27;server_name&#x27;: &#x27;D002338&#x27;, &#x27;bpython&#x27;: False, &#x27;nogui&#x27;: False, &#x27;port&#x27;: 8000, &#x27;print_errors&#x27;: False, &#x27;extcron&#x27;: False, &#x27;runcron&#x27;: False, &#x27;run_system_tests&#x27;: False, &#x27;test&#x27;: None, &#x27;folder&#x27;: &#x27;C:\\\\catalogo_presationi&#x27;, &#x27;config&#x27;: &#x27;&#x27;, &#x27;minthreads&#x27;: None, &#x27;shell&#x27;: None, &#x27;run&#x27;: &#x27;&#x27;, &#x27;log_filename&#x27;: &#x27;httpserver.log&#x27;, &#x27;profiler_dir&#x27;: None, &#x27;args&#x27;: [&#x27;&#x27;], &#x27;socket_timeout&#x27;: 5, &#x27;ssl_ca_certificate&#x27;: None, &#x27;scheduler&#x27;: None, &#x27;interfaces&#x27;: None, &#x27;ssl_private_key&#x27;: &#x27;&#x27;, &#x27;gae&#x27;: None, &#x27;password&#x27;: &#x27;******&#x27;, &#x27;request_queue_size&#x27;: 5, &#x27;ssl_certificate&#x27;: &#x27;&#x27;, &#x27;cronjob&#x27;: False, &#x27;numthreads&#x27;: None, &#x27;quiet&#x27;: False, &#x27;import_models&#x27;: False, &#x27;timeout&#x27;: 10, &#x27;plain&#x27;: False, &#x27;nobanner&#x27;: False}&gt;</div></td></tr><tr><td style="font-weight:bold;vertical-align:top;">db_sessions</td><td style="vertical-align:top;">:</td><td><div>set([])</div></td></tr><tr><td style="font-weight:bold;vertical-align:top;">debugging</td><td style="vertical-align:top;">:</td><td><div>False</div></td></tr><tr><td style="font-weight:bold;vertical-align:top;">gluon_parent</td><td style="vertical-align:top;">:</td><td><div>C:\\catalogo_presationi</div></td></tr><tr><td style="font-weight:bold;vertical-align:top;">http_accept</td><td style="vertical-align:top;">:</td><td><div>text/html,application/xhtml+xml,application/xml;q=0.9,image/webp,*/*;q=0.8</div></td></tr><tr><td style="font-weight:bold;vertical-align:top;">http_accept_encoding</td><td style="vertical-align:top;">:</td><td><div>gzip, deflate, sdch</div></td></tr><tr><td style="font-weight:bold;vertical-align:top;">http_accept_language</td><td style="vertical-align:top;">:</td><td><div>it-IT,it;q=0.8,en-US;q=0.6,en;q=0.4</div></td></tr><tr><td style="font-weight:bold;vertical-align:top;">http_connection</td><td style="vertical-align:top;">:</td><td><div>keep-alive</div></td></tr><tr><td style="font-weight:bold;vertical-align:top;">http_cookie</td><td style="vertical-align:top;">:</td><td><div>session_id_welcome=127.0.0.1-71302cb8-d9ee-49fa-87c4-3610dab52268; session_id_admin=127.0.0.1-a046b652-99fe-48bb-9255-793d5fe104ba; session_id_catalogo_prestazioni=127.0.0.1-f97a2898-a8f6-4556-aade-19e2de7fc894</div></td></tr><tr><td style="font-weight:bold;vertical-align:top;">http_host</td><td style="vertical-align:top;">:</td><td><div>127.0.0.1:5000</div></td></tr><tr><td style="font-weight:bold;vertical-align:top;">http_referer</td><td style="vertical-align:top;">:</td><td><div>http://127.0.0.1:5000/Catalogo_Prestazioni/default/analisi_filtrate?Cerca_prestazione=glice</div></td></tr><tr><td style="font-weight:bold;vertical-align:top;">http_upgrade_insecure_requests</td><td style="vertical-align:top;">:</td><td><div>1</div></td></tr><tr><td style="font-weight:bold;vertical-align:top;">http_user_agent</td><td style="vertical-align:top;">:</td><td><div>Mozilla/5.0 (Windows NT 6.1) AppleWebKit/537.36 (KHTML, like Gecko) Chrome/52.0.2743.116 Safari/537.36</div></td></tr><tr><td style="font-weight:bold;vertical-align:top;">is_jython</td><td style="vertical-align:top;">:</td><td><div>False</div></td></tr><tr><td style="font-weight:bold;vertical-align:top;">is_pypy</td><td style="vertical-align:top;">:</td><td><div>False</div></td></tr><tr><td style="font-weight:bold;vertical-align:top;">is_source</td><td style="vertical-align:top;">:</td><td><div>False</div></td></tr><tr><td style="font-weight:bold;vertical-align:top;">local_hosts</td><td style="vertical-align:top;">:</td><td><div><table><tr><td><div>D002338</div></td></tr><tr><td><div>::ffff:127.0.0.1</div></td></tr><tr><td><div>::1</div></td></tr><tr><td><div>D002338.oorrbg.local</div></td></tr><tr><td><div>10.12.41.46</div></td></tr><tr><td><div>127.0.0.1</div></td></tr></table></div></td></tr><tr><td style="font-weight:bold;vertical-align:top;">path_info</td><td style="vertical-align:top;">:</td><td><div>/Catalogo_Prestazioni/default/scheda_esami/19</div></td></tr><tr><td style="font-weight:bold;vertical-align:top;">query_string</td><td style="vertical-align:top;">:</td><td><div></div></td></tr><tr><td style="font-weight:bold;vertical-align:top;">remote_addr</td><td style="vertical-align:top;">:</td><td><div>127.0.0.1</div></td></tr><tr><td style="font-weight:bold;vertical-align:top;">remote_port</td><td style="vertical-align:top;">:</td><td><div>50459</div></td></tr><tr><td style="font-weight:bold;vertical-align:top;">request_method</td><td style="vertical-align:top;">:</td><td><div>GET</div></td></tr><tr><td style="font-weight:bold;vertical-align:top;">request_uri</td><td style="vertical-align:top;">:</td><td><div>/Catalogo_Prestazioni/default/scheda_esami/19</div></td></tr><tr><td style="font-weight:bold;vertical-align:top;">script_name</td><td style="vertical-align:top;">:</td><td><div></div></td></tr><tr><td style="font-weight:bold;vertical-align:top;">server_name</td><td style="vertical-align:top;">:</td><td><div>D002338</div></td></tr><tr><td style="font-weight:bold;vertical-align:top;">server_port</td><td style="vertical-align:top;">:</td><td><div>5000</div></td></tr><tr><td style="font-weight:bold;vertical-align:top;">server_protocol</td><td style="vertical-align:top;">:</td><td><div>HTTP/1.1</div></td></tr><tr><td style="font-weight:bold;vertical-align:top;">server_software</td><td style="vertical-align:top;">:</td><td><div>Rocket 1.2.6</div></td></tr><tr><td style="font-weight:bold;vertical-align:top;">web2py_path</td><td style="vertical-align:top;">:</td><td><div>C:\\catalogo_presationi</div></td></tr><tr><td style="font-weight:bold;vertical-align:top;">web2py_version</td><td style="vertical-align:top;">:</td><td><div>2.14.6-stable+timestamp.2016.05.10.00.21.47</div></td></tr><tr><td style="font-weight:bold;vertical-align:top;">wsgi.errors</td><td style="vertical-align:top;">:</td><td><div>&lt;open file &#x27;&lt;stderr&gt;&#x27;, mode &#x27;w&#x27; at 0x0134D0D0&gt;</div></td></tr><tr><td style="font-weight:bold;vertical-align:top;">wsgi.file_wrapper</td><td style="vertical-align:top;">:</td><td><div>&lt;class wsgiref.util.FileWrapper at 0x0277CE68&gt;</div></td></tr><tr><td style="font-weight:bold;vertical-align:top;">wsgi.input</td><td style="vertical-align:top;">:</td><td><div>&lt;socket._fileobject object at 0x03A371B0&gt;</div></td></tr><tr><td style="font-weight:bold;vertical-align:top;">wsgi.multiprocess</td><td style="vertical-align:top;">:</td><td><div>False</div></td></tr><tr><td style="font-weight:bold;vertical-align:top;">wsgi.multithread</td><td style="vertical-align:top;">:</td><td><div>True</div></td></tr><tr><td style="font-weight:bold;vertical-align:top;">wsgi.run_once</td><td style="vertical-align:top;">:</td><td><div>False</div></td></tr><tr><td style="font-weight:bold;vertical-align:top;">wsgi.url_scheme</td><td style="vertical-align:top;">:</td><td><div>http</div></td></tr><tr><td style="font-weight:bold;vertical-align:top;">wsgi.version</td><td style="vertical-align:top;">:</td><td><div><table><tr><td><div>1</div></td></tr><tr><td><div>0</div></td></tr></table></div></td></tr><tr><td style="font-weight:bold;vertical-align:top;">wsgi_errors</td><td style="vertical-align:top;">:</td><td><div>&lt;open file &#x27;&lt;stderr&gt;&#x27;, mode &#x27;w&#x27; at 0x0134D0D0&gt;</div></td></tr><tr><td style="font-weight:bold;vertical-align:top;">wsgi_file_wrapper</td><td style="vertical-align:top;">:</td><td><div>&lt;class wsgiref.util.FileWrapper at 0x0277CE68&gt;</div></td></tr><tr><td style="font-weight:bold;vertical-align:top;">wsgi_input</td><td style="vertical-align:top;">:</td><td><div>&lt;socket._fileobject object at 0x03A371B0&gt;</div></td></tr><tr><td style="font-weight:bold;vertical-align:top;">wsgi_multiprocess</td><td style="vertical-align:top;">:</td><td><div>False</div></td></tr><tr><td style="font-weight:bold;vertical-align:top;">wsgi_multithread</td><td style="vertical-align:top;">:</td><td><div>True</div></td></tr><tr><td style="font-weight:bold;vertical-align:top;">wsgi_run_once</td><td style="vertical-align:top;">:</td><td><div>False</div></td></tr><tr><td style="font-weight:bold;vertical-align:top;">wsgi_url_scheme</td><td style="vertical-align:top;">:</td><td><div>http</div></td></tr><tr><td style="font-weight:bold;vertical-align:top;">wsgi_version</td><td style="vertical-align:top;">:</td><td><div><table><tr><td><div>1</div></td></tr><tr><td><div>0</div></td></tr></table></div></td></tr></table></div></td></tr><tr><td style="font-weight:bold;vertical-align:top;">extension</td><td style="vertical-align:top;">:</td><td><div>html</div></td></tr><tr><td style="font-weight:bold;vertical-align:top;">folder</td><td style="vertical-align:top;">:</td><td><div>C:\\catalogo_presationi\\applications\\Catalogo_Prestazioni\\</div></td></tr><tr><td style="font-weight:bold;vertical-align:top;">function</td><td style="vertical-align:top;">:</td><td><div>scheda_esami</div></td></tr><tr><td style="font-weight:bold;vertical-align:top;">global_settings</td><td style="vertical-align:top;">:</td><td><div><table><tr><td style="font-weight:bold;vertical-align:top;">app_folders</td><td style="vertical-align:top;">:</td><td><div>set([&#x27;C:\\\\catalogo_presationi\\\\applications\\\\admin\\\\&#x27;, &#x27;C:\\\\catalogo_presationi\\\\applications\\\\Catalogo_Prestazioni\\\\&#x27;, &#x27;C:\\\\catalogo_presationi\\\\applications\\\\welcome\\\\&#x27;])</div></td></tr><tr><td style="font-weight:bold;vertical-align:top;">applications_parent</td><td style="vertical-align:top;">:</td><td><div>C:\\catalogo_presationi</div></td></tr><tr><td style="font-weight:bold;vertical-align:top;">cmd_args</td><td style="vertical-align:top;">:</td><td><div><table></table></div></td></tr><tr><td style="font-weight:bold;vertical-align:top;">cmd_options</td><td style="vertical-align:top;">:</td><td><div>&lt;Values at 0x2695170: {&#x27;verbose&#x27;: False, &#x27;ip&#x27;: &#x27;127.0.0.1&#x27;, &#x27;debuglevel&#x27;: 30, &#x27;with_scheduler&#x27;: False, &#x27;shutdown_timeout&#x27;: 5, &#x27;taskbar&#x27;: False, &#x27;with_coverage&#x27;: False, &#x27;pid_filename&#x27;: &#x27;httpserver.pid&#x27;, &#x27;maxthreads&#x27;: None, &#x27;softcron&#x27;: False, &#x27;server_name&#x27;: &#x27;D002338&#x27;, &#x27;bpython&#x27;: False, &#x27;nogui&#x27;: False, &#x27;port&#x27;: 8000, &#x27;print_errors&#x27;: False, &#x27;extcron&#x27;: False, &#x27;runcron&#x27;: False, &#x27;run_system_tests&#x27;: False, &#x27;test&#x27;: None, &#x27;folder&#x27;: &#x27;C:\\\\catalogo_presationi&#x27;, &#x27;config&#x27;: &#x27;&#x27;, &#x27;minthreads&#x27;: None, &#x27;shell&#x27;: None, &#x27;run&#x27;: &#x27;&#x27;, &#x27;log_filename&#x27;: &#x27;httpserver.log&#x27;, &#x27;profiler_dir&#x27;: None, &#x27;args&#x27;: [&#x27;&#x27;], &#x27;socket_timeout&#x27;: 5, &#x27;ssl_ca_certificate&#x27;: None, &#x27;scheduler&#x27;: None, &#x27;interfaces&#x27;: None, &#x27;ssl_private_key&#x27;: &#x27;&#x27;, &#x27;gae&#x27;: None, &#x27;password&#x27;: &#x27;******&#x27;, &#x27;request_queue_size&#x27;: 5, &#x27;ssl_certificate&#x27;: &#x27;&#x27;, &#x27;cronjob&#x27;: False, &#x27;numthreads&#x27;: None, &#x27;quiet&#x27;: False, &#x27;import_models&#x27;: False, &#x27;timeout&#x27;: 10, &#x27;plain&#x27;: False, &#x27;nobanner&#x27;: False}&gt;</div></td></tr><tr><td style="font-weight:bold;vertical-align:top;">db_sessions</td><td style="vertical-align:top;">:</td><td><div>set([])</div></td></tr><tr><td style="font-weight:bold;vertical-align:top;">debugging</td><td style="vertical-align:top;">:</td><td><div>False</div></td></tr><tr><td style="font-weight:bold;vertical-align:top;">gluon_parent</td><td style="vertical-align:top;">:</td><td><div>C:\\catalogo_presationi</div></td></tr><tr><td style="font-weight:bold;vertical-align:top;">is_jython</td><td style="vertical-align:top;">:</td><td><div>False</div></td></tr><tr><td style="font-weight:bold;vertical-align:top;">is_pypy</td><td style="vertical-align:top;">:</td><td><div>False</div></td></tr><tr><td style="font-weight:bold;vertical-align:top;">is_source</td><td style="vertical-align:top;">:</td><td><div>False</div></td></tr><tr><td style="font-weight:bold;vertical-align:top;">local_hosts</td><td style="vertical-align:top;">:</td><td><div><table><tr><td><div>D002338</div></td></tr><tr><td><div>::ffff:127.0.0.1</div></td></tr><tr><td><div>::1</div></td></tr><tr><td><div>D002338.oorrbg.local</div></td></tr><tr><td><div>10.12.41.46</div></td></tr><tr><td><div>127.0.0.1</div></td></tr></table></div></td></tr><tr><td style="font-weight:bold;vertical-align:top;">web2py_version</td><td style="vertical-align:top;">:</td><td><div>2.14.6-stable+timestamp.2016.05.10.00.21.47</div></td></tr></table></div></td></tr><tr><td style="font-weight:bold;vertical-align:top;">is_https</td><td style="vertical-align:top;">:</td><td><div>False</div></td></tr><tr><td style="font-weight:bold;vertical-align:top;">is_local</td><td style="vertical-align:top;">:</td><td><div>True</div></td></tr><tr><td style="font-weight:bold;vertical-align:top;">is_restful</td><td style="vertical-align:top;">:</td><td><div>False</div></td></tr><tr><td style="font-weight:bold;vertical-align:top;">is_scheduler</td><td style="vertical-align:top;">:</td><td><div>False</div></td></tr><tr><td style="font-weight:bold;vertical-align:top;">is_shell</td><td style="vertical-align:top;">:</td><td><div>False</div></td></tr><tr><td style="font-weight:bold;vertical-align:top;">now</td><td style="vertical-align:top;">:</td><td><div>datetime.datetime(2016, 8, 19, 11, 12, 36, 473000)</div></td></tr><tr><td style="font-weight:bold;vertical-align:top;">raw_args</td><td style="vertical-align:top;">:</td><td><div>19</div></td></tr><tr><td style="font-weight:bold;vertical-align:top;">raw_extension</td><td style="vertical-align:top;">:</td><td><div>None</div></td></tr><tr><td style="font-weight:bold;vertical-align:top;">url</td><td style="vertical-align:top;">:</td><td><div>/Catalogo_Prestazioni/default/scheda_esami/19</div></td></tr><tr><td style="font-weight:bold;vertical-align:top;">utcnow</td><td style="vertical-align:top;">:</td><td><div>datetime.datetime(2016, 8, 19, 9, 12, 36, 473000)</div></td></tr><tr><td style="font-weight:bold;vertical-align:top;">wsgi</td><td style="vertical-align:top;">:</td><td><div>&lt;gluon.main.LazyWSGI object at 0x03CE3710&gt;</div></td></tr></table></div>'
tRp58
sS'frames'
p59
(lp60
(dp61
S'file'
p62
S'C:\\catalogo_presationi\\gluon\\restricted.py'
p63
sS'dump'
p64
(dp65
S'environment'
p66
S"{'A': <class 'gluon.html.A'>, 'ANY_OF': <class 'gluon.validators.ANY_OF'>, 'ASSIGNJS': <function ASSIGNJS>, 'AppConfig': <function AppConfig>, 'Auth': <class 'gluon.tools.Auth'>, 'B': <class 'gluon.html.B'>, 'BEAUTIFY': <class 'gluon.html.BEAUTIFY'>, 'BODY': <class 'gluon.html.BODY'>, 'BR': <class 'gluon.html.BR'>, 'BUTTON': <class 'gluon.html.BUTTON'>, ...}"
p67
sS'ccode'
p68
S'<code object <module> at 03E43728, file "C:\\cata...ogo_Prestazioni\\controllers/default.py", line 11>'
p69
ssS'lnum'
p70
I227
sS'lines'
p71
(dp72
I224
S'            ccode = code'
p73
sI225
S'        else:'
p74
sI226
S'            ccode = compile2(code, layer)'
p75
sI227
S'        exec ccode in environment'
p76
sI228
S'    except HTTP:'
p77
sI229
S'        raise'
p78
sI230
S'    except RestrictedError:'
p79
sI231
S'        # do not encapsulate (obfuscate) the original RestrictedError'
p80
sI222
S'    try:'
p81
sI223
S'        if isinstance(code, types.CodeType):'
p82
ssS'call'
p83
S"(code='# -*- coding: utf-8 -*-\\n# this file is released ...)\\n\\nresponse._vars=response._caller(scheda_esami)\\n', environment={'A': <class 'gluon.html.A'>, 'ANY_OF': <class 'gluon.validators.ANY_OF'>, 'ASSIGNJS': <function ASSIGNJS>, 'AppConfig': <function AppConfig>, 'Auth': <class 'gluon.tools.Auth'>, 'B': <class 'gluon.html.B'>, 'BEAUTIFY': <class 'gluon.html.BEAUTIFY'>, 'BODY': <class 'gluon.html.BODY'>, 'BR': <class 'gluon.html.BR'>, 'BUTTON': <class 'gluon.html.BUTTON'>, ...}, layer=r'C:\\catalogo_presationi\\applications\\Catalogo_Prestazioni\\controllers/default.py')"
p84
sS'func'
p85
S'restricted'
p86
sa(dp87
g62
S'C:\\catalogo_presationi\\applications\\Catalogo_Prestazioni\\controllers\\default.py'
p88
sg64
(dp89
sg70
I175
sg71
(dp90
I164
S'    supports xml, json, xmlrpc, jsonrpc, amfrpc, rss, csv'
p91
sI165
S'    """'
p92
sI166
S'    return service()'
p93
sI167
S''
sI168
S''
sI169
S'def info():'
p94
sI170
S'    id = auth.user'
p95
sI171
S'    gr = auth.groups()  # [:1]'
p96
sI172
S'    uo = auth.user.id_unitaoperativa'
p97
sI173
S'    return locals()'
p98
ssg83
S'()'
p99
sg85
S'<module>'
p100
sa(dp101
g62
S'C:\\catalogo_presationi\\gluon\\globals.py'
p102
sg64
(dp103
S'self'
p104
S'undefined'
p105
sS'f'
S'<function scheda_esami>'
p106
ssg70
I417
sg71
(dp107
I416
S'        self._vars = None'
p108
sI417
S'        self._caller = lambda f: f()'
p109
sI418
S'        self._view_environment = None'
p110
sI419
S'        self._custom_commit = None'
p111
sI420
S'        self._custom_rollback = None'
p112
sI421
S"        self.generic_patterns = ['*']"
p113
sI412
S"        self.flash = ''            # used by the default view layout"
p114
sI413
S'        self.meta = Storage()      # used by web2py_ajax.html'
p115
sI414
S'        self.menu = []             # used by the default view layout'
p116
sI415
S'        self.files = []            # used by web2py_ajax.html'
p117
ssg83
S'(f=<function scheda_esami>)'
p118
sg85
S'<lambda>'
p119
sa(dp120
g62
S'C:\\catalogo_presationi\\applications\\Catalogo_Prestazioni\\controllers\\default.py'
p121
sg64
(dp122
S'global db'
p123
S'<DAL uri="sqlite://tests_catalog.db3">'
p124
sS'anal'
p125
g105
sS'db.esami'
p126
S'<Table esami (id, analita, search_keywords, atti...reated_on, created_by, modified_on, modified_by)>'
p127
sS'id_esame'
p128
S"'19'"
p129
ssg70
I94
sg71
(dp130
I96
S'    met = db.metodi[anal.id_metodo]'
p131
sI97
S'    sett = db.settori[anal.id_settore]'
p132
sI98
S'    cont = db.contenitori[anal.id_contenitore]'
p133
sI89
S'    return dict(grid=grid)'
p134
sI90
S''
sI91
S''
sI92
S'def scheda_esami():'
p135
sI93
S'    id_esame = request.args(0)'
p136
sI94
S'    anal = db.esami[id_esame]'
p137
sI95
S'    mat = db.materiali[anal.id_materiali]'
p138
ssg83
S'()'
p139
sg85
S'scheda_esami'
p140
sa(dp141
g62
S'C:\\catalogo_presationi\\gluon\\packages\\dal\\pydal\\objects.py'
p142
sg64
(dp143
S'orderby_on_limitby'
p144
g105
sS'builtinFalse'
p145
S'False'
p146
ssg70
I504
sg71
(dp147
I499
S'            except:'
p148
sI500
S'                isgoogle = False'
p149
sI501
S'            if str(key).isdigit() or isgoogle:'
p150
sI502
S'                return self._db(self._id == key).select('
p151
sI503
S'                    limitby=(0, 1),'
p152
sI504
S'                    orderby_on_limitby=False'
p153
sI505
S'                ).first()'
p154
sI506
S'            else:'
p155
sI507
S'                try:'
p156
sI508
S'                    return getattr(self, key)'
p157
ssg83
S"(self=<Table esami (id, analita, search_keywords, atti...reated_on, created_by, modified_on, modified_by)>, key='19')"
p158
sg85
g20
sa(dp159
g62
S'C:\\catalogo_presationi\\gluon\\packages\\dal\\pydal\\objects.py'
p160
sg64
(dp161
S'self.query'
p162
S'<Query (esami.id = 19)>'
p163
sS'adapter.select'
p164
S'<bound method SQLiteAdapter.select of <pydal.adapters.sqlite.SQLiteAdapter object>>'
p165
sS'fields'
p166
S'[<pydal.objects.Field object>, <pydal.objects.Field object>, <pydal.objects.Field object>, <pydal.objects.Field object>, <pydal.objects.Field object>, <pydal.objects.Field object>, <pydal.objects.Field object>, <pydal.objects.Field object>, <pydal.objects.Field object>, <pydal.objects.Field object>, <pydal.objects.Field object>, <pydal.objects.Field object>, <pydal.objects.Field object>, <pydal.objects.Field object>, <pydal.objects.Field object>, <pydal.objects.Field object>, <pydal.objects.Field object>, <pydal.objects.Field object>, <pydal.objects.Field object>, <pydal.objects.Field object>, ...]'
p167
sS'adapter'
p168
S'<pydal.adapters.sqlite.SQLiteAdapter object>'
p169
sS'attributes'
p170
S"{'limitby': (0, 1), 'orderby_on_limitby': False}"
p171
sS'self'
p172
S'<Set (esami.id = 19)>'
p173
ssg70
I2020
sg71
(dp174
I2016
S"                                    attributes.get('left', None),"
p175
sI2017
S"                                    attributes.get('orderby', None),"
p176
sI2018
S"                                    attributes.get('groupby', None))"
p177
sI2019
S'        fields = adapter.expand_all(fields, tablenames)'
p178
sI2020
S'        return adapter.select(self.query, fields, attributes)'
p179
sI2021
S''
sI2022
S'    def iterselect(self, *fields, **attributes):'
p180
sI2023
S'        adapter = self.db._adapter'
p181
sI2024
S'        tablenames = adapter.tables(self.query,'
p182
sI2015
S"                                    attributes.get('join', None),"
p183
ssg83
S"(self=<Set (esami.id = 19)>, *fields=[<pydal.objects.Field object>, <pydal.objects.Field object>, <pydal.objects.Field object>, <pydal.objects.Field object>, <pydal.objects.Field object>, <pydal.objects.Field object>, <pydal.objects.Field object>, <pydal.objects.Field object>, <pydal.objects.Field object>, <pydal.objects.Field object>, <pydal.objects.Field object>, <pydal.objects.Field object>, <pydal.objects.Field object>, <pydal.objects.Field object>, <pydal.objects.Field object>, <pydal.objects.Field object>, <pydal.objects.Field object>, <pydal.objects.Field object>, <pydal.objects.Field object>, <pydal.objects.Field object>, ...], **attributes={'limitby': (0, 1), 'orderby_on_limitby': False})"
p184
sg85
S'select'
p185
sa(dp186
g62
S'C:\\catalogo_presationi\\gluon\\packages\\dal\\pydal\\adapters\\sqlite.py'
p187
sg64
(dp188
S'fields'
p189
S'[<pydal.objects.Field object>, <pydal.objects.Field object>, <pydal.objects.Field object>, <pydal.objects.Field object>, <pydal.objects.Field object>, <pydal.objects.Field object>, <pydal.objects.Field object>, <pydal.objects.Field object>, <pydal.objects.Field object>, <pydal.objects.Field object>, <pydal.objects.Field object>, <pydal.objects.Field object>, <pydal.objects.Field object>, <pydal.objects.Field object>, <pydal.objects.Field object>, <pydal.objects.Field object>, <pydal.objects.Field object>, <pydal.objects.Field object>, <pydal.objects.Field object>, <pydal.objects.Field object>, ...]'
p190
sS'self'
p191
S'<pydal.adapters.sqlite.SQLiteAdapter object>'
p192
sS').select'
p193
S'<bound method SQLiteAdapter.select of <pydal.adapters.sqlite.SQLiteAdapter object>>'
p194
sS'attributes'
p195
S"{'limitby': (0, 1), 'orderby_on_limitby': False}"
p196
sS'global SQLiteAdapter'
p197
S"<class 'pydal.adapters.sqlite.SQLiteAdapter'>"
p198
sS'query'
p199
S'<Query (esami.id = 19)>'
p200
sS'builtinsuper'
p201
S"<type 'super'>"
p202
ssg70
I123
sg71
(dp203
I118
S'        Note that the entire database, rather than one record, is locked'
p204
sI119
S'        (it will be locked eventually anyway by the following UPDATE).'
p205
sI120
S'        """'
p206
sI121
S"        if attributes.get('for_update', False) and not 'cache' in attributes:"
p207
sI122
S"            self.execute('BEGIN IMMEDIATE TRANSACTION;')"
p208
sI123
S'        return super(SQLiteAdapter, self).select(query, fields, attributes)'
p209
sI124
S''
sI125
S''
sI126
S'SPATIALLIBS = {'
p210
sI127
S"    'Windows':'mod_spatialite.dll',"
p211
ssg83
S"(self=<pydal.adapters.sqlite.SQLiteAdapter object>, query=<Query (esami.id = 19)>, fields=[<pydal.objects.Field object>, <pydal.objects.Field object>, <pydal.objects.Field object>, <pydal.objects.Field object>, <pydal.objects.Field object>, <pydal.objects.Field object>, <pydal.objects.Field object>, <pydal.objects.Field object>, <pydal.objects.Field object>, <pydal.objects.Field object>, <pydal.objects.Field object>, <pydal.objects.Field object>, <pydal.objects.Field object>, <pydal.objects.Field object>, <pydal.objects.Field object>, <pydal.objects.Field object>, <pydal.objects.Field object>, <pydal.objects.Field object>, <pydal.objects.Field object>, <pydal.objects.Field object>, ...], attributes={'limitby': (0, 1), 'orderby_on_limitby': False})"
p212
sg85
g185
sa(dp213
g62
S'C:\\catalogo_presationi\\gluon\\packages\\dal\\pydal\\adapters\\base.py'
p214
sg64
(dp215
S'fields'
p216
S'[<pydal.objects.Field object>, <pydal.objects.Field object>, <pydal.objects.Field object>, <pydal.objects.Field object>, <pydal.objects.Field object>, <pydal.objects.Field object>, <pydal.objects.Field object>, <pydal.objects.Field object>, <pydal.objects.Field object>, <pydal.objects.Field object>, <pydal.objects.Field object>, <pydal.objects.Field object>, <pydal.objects.Field object>, <pydal.objects.Field object>, <pydal.objects.Field object>, <pydal.objects.Field object>, <pydal.objects.Field object>, <pydal.objects.Field object>, <pydal.objects.Field object>, <pydal.objects.Field object>, ...]'
p217
sS'self'
p218
S'<pydal.adapters.sqlite.SQLiteAdapter object>'
p219
sS'attributes'
p220
S"{'limitby': (0, 1), 'orderby_on_limitby': False}"
p221
sS'self._select_aux'
p222
S'<bound method SQLiteAdapter._select_aux of <pydal.adapters.sqlite.SQLiteAdapter object>>'
p223
sS'sql'
p224
S"'SELECT  esami.id, esami.analita, esami.search_ke...ROM esami WHERE (esami.id = 19) LIMIT 1 OFFSET 0;'"
p225
ssg70
I1296
sg71
(dp226
I1291
S'            return cache_model('
p227
sI1292
S'                key,'
p228
sI1293
S'                lambda self=self,args=args:self._select_aux(*args),'
p229
sI1294
S'                time_expire)'
p230
sI1295
S'        else:'
p231
sI1296
S'            return self._select_aux(sql,fields,attributes)'
p232
sI1297
S''
sI1298
S'    def iterselect(self, query, fields, attributes):'
p233
sI1299
S'        sql = self._select(query, fields, attributes)'
p234
sI1300
S"        cacheable = attributes.get('cacheable', False)"
p235
ssg83
S"(self=<pydal.adapters.sqlite.SQLiteAdapter object>, query=<Query (esami.id = 19)>, fields=[<pydal.objects.Field object>, <pydal.objects.Field object>, <pydal.objects.Field object>, <pydal.objects.Field object>, <pydal.objects.Field object>, <pydal.objects.Field object>, <pydal.objects.Field object>, <pydal.objects.Field object>, <pydal.objects.Field object>, <pydal.objects.Field object>, <pydal.objects.Field object>, <pydal.objects.Field object>, <pydal.objects.Field object>, <pydal.objects.Field object>, <pydal.objects.Field object>, <pydal.objects.Field object>, <pydal.objects.Field object>, <pydal.objects.Field object>, <pydal.objects.Field object>, <pydal.objects.Field object>, ...], attributes={'limitby': (0, 1), 'orderby_on_limitby': False})"
p236
sg85
g185
sa(dp237
g62
S'C:\\catalogo_presationi\\gluon\\packages\\dal\\pydal\\adapters\\base.py'
p238
sg64
(dp239
S'self'
p240
S'<pydal.adapters.sqlite.SQLiteAdapter object>'
p241
sS'self.execute'
p242
S'<bound method SQLiteAdapter.execute of <pydal.adapters.sqlite.SQLiteAdapter object>>'
p243
sS'sql'
p244
S"'SELECT  esami.id, esami.analita, esami.search_ke...ROM esami WHERE (esami.id = 19) LIMIT 1 OFFSET 0;'"
p245
ssg70
I1253
sg71
(dp246
I1248
S''
sI1249
S'    def _select_aux(self, sql, fields, attributes):'
p247
sI1250
S'        args_get = attributes.get'
p248
sI1251
S"        cache = args_get('cache',None)"
p249
sI1252
S'        if not cache:'
p250
sI1253
S'            self.execute(sql)'
p251
sI1254
S'            rows = self._fetchall()'
p252
sI1255
S'        else:'
p253
sI1256
S'            if isinstance(cache, dict):'
p254
sI1257
S"                cache_model = cache['model']"
p255
ssg83
S"(self=<pydal.adapters.sqlite.SQLiteAdapter object>, sql='SELECT  esami.id, esami.analita, esami.search_ke...ROM esami WHERE (esami.id = 19) LIMIT 1 OFFSET 0;', fields=[<pydal.objects.Field object>, <pydal.objects.Field object>, <pydal.objects.Field object>, <pydal.objects.Field object>, <pydal.objects.Field object>, <pydal.objects.Field object>, <pydal.objects.Field object>, <pydal.objects.Field object>, <pydal.objects.Field object>, <pydal.objects.Field object>, <pydal.objects.Field object>, <pydal.objects.Field object>, <pydal.objects.Field object>, <pydal.objects.Field object>, <pydal.objects.Field object>, <pydal.objects.Field object>, <pydal.objects.Field object>, <pydal.objects.Field object>, <pydal.objects.Field object>, <pydal.objects.Field object>, ...], attributes={'limitby': (0, 1), 'orderby_on_limitby': False})"
p256
sg85
S'_select_aux'
p257
sa(dp258
g62
S'C:\\catalogo_presationi\\gluon\\packages\\dal\\pydal\\adapters\\base.py'
p259
sg64
(dp260
S'a'
S"('SELECT  esami.id, esami.analita, esami.search_ke...ROM esami WHERE (esami.id = 19) LIMIT 1 OFFSET 0;',)"
p261
sS'self'
p262
S'<pydal.adapters.sqlite.SQLiteAdapter object>'
p263
sS'b'
g45
sS'self.log_execute'
p264
S'<bound method SQLiteAdapter.log_execute of <pydal.adapters.sqlite.SQLiteAdapter object>>'
p265
ssg70
I1388
sg71
(dp266
I1383
S'        self.db._timings.append((command,time.time()-t0))'
p267
sI1384
S'        del self.db._timings[:-TIMINGSSIZE]'
p268
sI1385
S'        return ret'
p269
sI1386
S''
sI1387
S'    def execute(self, *a, **b):'
p270
sI1388
S'        return self.log_execute(*a, **b)'
p271
sI1389
S''
sI1390
S'    def execute_test_query(self):'
p272
sI1391
S'        return self.execute(self.test_query)'
p273
sI1392
S''
ssg83
S"(self=<pydal.adapters.sqlite.SQLiteAdapter object>, *a=('SELECT  esami.id, esami.analita, esami.search_ke...ROM esami WHERE (esami.id = 19) LIMIT 1 OFFSET 0;',), **b={})"
p274
sg85
S'execute'
p275
sa(dp276
g62
S'C:\\catalogo_presationi\\gluon\\packages\\dal\\pydal\\adapters\\base.py'
p277
sg64
(dp278
S'a'
S"('SELECT  esami.id, esami.analita, esami.search_ke...ROM esami WHERE (esami.id = 19) LIMIT 1 OFFSET 0;',)"
p279
sS'b'
g45
sS'self'
p280
S'<pydal.adapters.sqlite.SQLiteAdapter object>'
p281
sS'ret'
p282
g105
sS'command'
p283
S"'SELECT  esami.id, esami.analita, esami.search_ke...ROM esami WHERE (esami.id = 19) LIMIT 1 OFFSET 0;'"
p284
sS'self.get_cursor'
p285
S'<bound method SQLiteAdapter.get_cursor of <pydal.adapters.sqlite.SQLiteAdapter object>>'
p286
sS').execute'
p287
g105
ssg70
I1382
sg71
(dp288
I1377
S'            command = self.filter_sql_command(command)'
p289
sI1378
S'        if self.db._debug:'
p290
sI1379
S"            self.db.logger.debug('SQL: %s' % command)"
p291
sI1380
S'        self.db._lastsql = command'
p292
sI1381
S'        t0 = time.time()'
p293
sI1382
S'        ret = self.get_cursor().execute(command, *a[1:], **b)'
p294
sI1383
S'        self.db._timings.append((command,time.time()-t0))'
p295
sI1384
S'        del self.db._timings[:-TIMINGSSIZE]'
p296
sI1385
S'        return ret'
p297
sI1386
S''
ssg83
S"(self=<pydal.adapters.sqlite.SQLiteAdapter object>, *a=('SELECT  esami.id, esami.analita, esami.search_ke...ROM esami WHERE (esami.id = 19) LIMIT 1 OFFSET 0;',), **b={})"
p298
sg85
S'log_execute'
p299
sa(dp300
g62
S'C:\\catalogo_presationi\\sqlite3\\dbapi2.py'
p301
sg64
(dp302
sg70
I68
sg71
(dp303
sg83
S"(val='42586.3729398148')"
p304
sg85
S'convert_timestamp'
p305
sasS'pyver'
p306
S'Python 2.7.9: C:\\catalogo_presationi\\web2py.exe (prefix: C:\\Python27)'
p307
sS'session'
p308
g57
(S's\x1a\x00\x00\x00<div><table></table></div>'
tRp309
sS'etype'
p310
S"<type 'exceptions.ValueError'>"
p311
sS'date'
p312
S'Fri Aug 19 11:12:36 2016'
p313
sS'response'
p314
g57
(S's\xc8\x1d\x00\x00<div><table><tr><td style="font-weight:bold;vertical-align:top;">body</td><td style="vertical-align:top;">:</td><td><div>&lt;cStringIO.StringO object at 0x03E1D240&gt;</div></td></tr><tr><td style="font-weight:bold;vertical-align:top;">cookies</td><td style="vertical-align:top;">:</td><td><div><table><tr><td style="font-weight:bold;vertical-align:top;">session_id_catalogo_prestazioni</td><td style="vertical-align:top;">:</td><td><div>127.0.0.1-f97a2898-a8f6-4556-aade-19e2de7fc894<table><tr><td style="font-weight:bold;vertical-align:top;">comment</td><td style="vertical-align:top;">:</td><td><div></div></td></tr><tr><td style="font-weight:bold;vertical-align:top;">domain</td><td style="vertical-align:top;">:</td><td><div></div></td></tr><tr><td style="font-weight:bold;vertical-align:top;">expires</td><td style="vertical-align:top;">:</td><td><div></div></td></tr><tr><td style="font-weight:bold;vertical-align:top;">httponly</td><td style="vertical-align:top;">:</td><td><div></div></td></tr><tr><td style="font-weight:bold;vertical-align:top;">max-age</td><td style="vertical-align:top;">:</td><td><div></div></td></tr><tr><td style="font-weight:bold;vertical-align:top;">path</td><td style="vertical-align:top;">:</td><td><div>/</div></td></tr><tr><td style="font-weight:bold;vertical-align:top;">secure</td><td style="vertical-align:top;">:</td><td><div></div></td></tr><tr><td style="font-weight:bold;vertical-align:top;">version</td><td style="vertical-align:top;">:</td><td><div></div></td></tr></table></div></td></tr></table></div></td></tr><tr><td style="font-weight:bold;vertical-align:top;">delimiters</td><td style="vertical-align:top;">:</td><td><div><table><tr><td><div>{{</div></td></tr><tr><td><div>}}</div></td></tr></table></div></td></tr><tr><td style="font-weight:bold;vertical-align:top;">files</td><td style="vertical-align:top;">:</td><td><div><table></table></div></td></tr><tr><td style="font-weight:bold;vertical-align:top;">flash</td><td style="vertical-align:top;">:</td><td><div></div></td></tr><tr><td style="font-weight:bold;vertical-align:top;">form_label_separator</td><td style="vertical-align:top;">:</td><td><div></div></td></tr><tr><td style="font-weight:bold;vertical-align:top;">formstyle</td><td style="vertical-align:top;">:</td><td><div>bootstrap3_inline</div></td></tr><tr><td style="font-weight:bold;vertical-align:top;">generic_patterns</td><td style="vertical-align:top;">:</td><td><div><table><tr><td><div>*</div></td></tr></table></div></td></tr><tr><td style="font-weight:bold;vertical-align:top;">google_analytics_id</td><td style="vertical-align:top;">:</td><td><div>None</div></td></tr><tr><td style="font-weight:bold;vertical-align:top;">headers</td><td style="vertical-align:top;">:</td><td><div><table><tr><td style="font-weight:bold;vertical-align:top;">X-Powered-By</td><td style="vertical-align:top;">:</td><td><div>web2py</div></td></tr></table></div></td></tr><tr><td style="font-weight:bold;vertical-align:top;">menu</td><td style="vertical-align:top;">:</td><td><div><table><tr><td><div><table><tr><td><div>Home</div></td></tr><tr><td><div>False</div></td></tr><tr><td><div>/Catalogo_Prestazioni/default/index</div></td></tr><tr><td><div><table></table></div></td></tr></table></div></td></tr><tr><td><div><table><tr><td><div>Ricerca Avanzata</div></td></tr><tr><td><div>False</div></td></tr><tr><td><div>/Catalogo_Prestazioni/default/adv_search</div></td></tr><tr><td><div><table></table></div></td></tr></table></div></td></tr></table></div></td></tr><tr><td style="font-weight:bold;vertical-align:top;">meta</td><td style="vertical-align:top;">:</td><td><div><table><tr><td style="font-weight:bold;vertical-align:top;">author</td><td style="vertical-align:top;">:</td><td><div>Paolo Amboni &lt;paolo.amboni@gmail.com&gt;</div></td></tr><tr><td style="font-weight:bold;vertical-align:top;">description</td><td style="vertical-align:top;">:</td><td><div>catalogo delle prestazioni di laboratorio</div></td></tr><tr><td style="font-weight:bold;vertical-align:top;">generator</td><td style="vertical-align:top;">:</td><td><div>Web2py Web Framework</div></td></tr><tr><td style="font-weight:bold;vertical-align:top;">keywords</td><td style="vertical-align:top;">:</td><td><div>laboratorio, analisi, catalogo, prestazioni</div></td></tr></table></div></td></tr><tr><td style="font-weight:bold;vertical-align:top;">models_to_run</td><td style="vertical-align:top;">:</td><td><div><table><tr><td><div>^\\w+\\.py$</div></td></tr><tr><td><div>^default/\\w+\\.py$</div></td></tr><tr><td><div>^default/scheda_esami/\\w+\\.py$</div></td></tr></table></div></td></tr><tr><td style="font-weight:bold;vertical-align:top;">postprocessing</td><td style="vertical-align:top;">:</td><td><div><table></table></div></td></tr><tr><td style="font-weight:bold;vertical-align:top;">session_client</td><td style="vertical-align:top;">:</td><td><div>127.0.0.1</div></td></tr><tr><td style="font-weight:bold;vertical-align:top;">session_cookie_compression_level</td><td style="vertical-align:top;">:</td><td><div>None</div></td></tr><tr><td style="font-weight:bold;vertical-align:top;">session_cookie_expires</td><td style="vertical-align:top;">:</td><td><div>None</div></td></tr><tr><td style="font-weight:bold;vertical-align:top;">session_data_name</td><td style="vertical-align:top;">:</td><td><div>session_data_catalogo_prestazioni</div></td></tr><tr><td style="font-weight:bold;vertical-align:top;">session_file</td><td style="vertical-align:top;">:</td><td><div>&lt;open file &#x27;C:\\\\catalogo_presationi\\\\applications\\\\Catalogo_Prestazioni\\\\sessions\\\\18e\\\\1d5\\\\127.0.0.1-f97a2898-a8f6-4556-aade-19e2de7fc894&#x27;, mode &#x27;rb+&#x27; at 0x035242E0&gt;</div></td></tr><tr><td style="font-weight:bold;vertical-align:top;">session_filename</td><td style="vertical-align:top;">:</td><td><div>C:\\catalogo_presationi\\applications\\Catalogo_Prestazioni\\sessions\\127.0.0.1-f97a2898-a8f6-4556-aade-19e2de7fc894</div></td></tr><tr><td style="font-weight:bold;vertical-align:top;">session_hash</td><td style="vertical-align:top;">:</td><td><div>937275eed55d79efcd87d6447f7ce46b</div></td></tr><tr><td style="font-weight:bold;vertical-align:top;">session_id</td><td style="vertical-align:top;">:</td><td><div>127.0.0.1-f97a2898-a8f6-4556-aade-19e2de7fc894</div></td></tr><tr><td style="font-weight:bold;vertical-align:top;">session_id_name</td><td style="vertical-align:top;">:</td><td><div>session_id_catalogo_prestazioni</div></td></tr><tr><td style="font-weight:bold;vertical-align:top;">session_locked</td><td style="vertical-align:top;">:</td><td><div>True</div></td></tr><tr><td style="font-weight:bold;vertical-align:top;">session_masterapp</td><td style="vertical-align:top;">:</td><td><div>Catalogo_Prestazioni</div></td></tr><tr><td style="font-weight:bold;vertical-align:top;">session_new</td><td style="vertical-align:top;">:</td><td><div>False</div></td></tr><tr><td style="font-weight:bold;vertical-align:top;">session_storage_type</td><td style="vertical-align:top;">:</td><td><div>file</div></td></tr><tr><td style="font-weight:bold;vertical-align:top;">status</td><td style="vertical-align:top;">:</td><td><div>200</div></td></tr><tr><td style="font-weight:bold;vertical-align:top;">subtitle</td><td style="vertical-align:top;">:</td><td><div></div></td></tr><tr><td style="font-weight:bold;vertical-align:top;">title</td><td style="vertical-align:top;">:</td><td><div>Catalogo Prestazioni</div></td></tr><tr><td style="font-weight:bold;vertical-align:top;">view</td><td style="vertical-align:top;">:</td><td><div>default/scheda_esami.html</div></td></tr></table></div>'
tRp315
sS'locals'
p316
(dp317
S'val'
p318
S"'42586.3729398148'"
p319
sssS'traceback'
p320
S'Traceback (most recent call last):\n  File "C:\\catalogo_presationi\\gluon\\restricted.py", line 227, in restricted\n    exec ccode in environment\n  File "C:\\catalogo_presationi\\applications\\Catalogo_Prestazioni\\controllers/default.py", line 175, in <module>\n  File "C:\\catalogo_presationi\\gluon\\globals.py", line 417, in <lambda>\n    self._caller = lambda f: f()\n  File "C:\\catalogo_presationi\\applications\\Catalogo_Prestazioni\\controllers/default.py", line 94, in scheda_esami\n    anal = db.esami[id_esame]\n  File "C:\\catalogo_presationi\\gluon\\packages\\dal\\pydal\\objects.py", line 504, in __getitem__\n    orderby_on_limitby=False\n  File "C:\\catalogo_presationi\\gluon\\packages\\dal\\pydal\\objects.py", line 2020, in select\n    return adapter.select(self.query, fields, attributes)\n  File "C:\\catalogo_presationi\\gluon\\packages\\dal\\pydal\\adapters\\sqlite.py", line 123, in select\n    return super(SQLiteAdapter, self).select(query, fields, attributes)\n  File "C:\\catalogo_presationi\\gluon\\packages\\dal\\pydal\\adapters\\base.py", line 1296, in select\n    return self._select_aux(sql,fields,attributes)\n  File "C:\\catalogo_presationi\\gluon\\packages\\dal\\pydal\\adapters\\base.py", line 1253, in _select_aux\n    self.execute(sql)\n  File "C:\\catalogo_presationi\\gluon\\packages\\dal\\pydal\\adapters\\base.py", line 1388, in execute\n    return self.log_execute(*a, **b)\n  File "C:\\catalogo_presationi\\gluon\\packages\\dal\\pydal\\adapters\\base.py", line 1382, in log_execute\n    ret = self.get_cursor().execute(command, *a[1:], **b)\n  File "sqlite3/dbapi2.py", line 68, in convert_timestamp\nValueError: need more than 1 value to unpack\n'
p321
s.